; Function Attrs: nounwind uwtable
define dso_local noundef zeroext i1 @range_split_internal(ptr noundef %0, ptr noundef %1, ptr noundef %2, ptr noundef writeonly captures(none) %3, ptr noundef writeonly captures(none) %4) local_unnamed_addr #0 {
  %6 = alloca %struct.RangeBound, align 8
  %7 = alloca %struct.RangeBound, align 8
  %8 = alloca %struct.RangeBound, align 8
  %9 = alloca %struct.RangeBound, align 8
  %10 = alloca i8, align 1
  %11 = alloca i8, align 1
  call void @llvm.lifetime.start.p0(i64 16, ptr nonnull %6) #14
  call void @llvm.lifetime.start.p0(i64 16, ptr nonnull %7) #14
  call void @llvm.lifetime.start.p0(i64 16, ptr nonnull %8) #14
  call void @llvm.lifetime.start.p0(i64 16, ptr nonnull %9) #14
  call void @llvm.lifetime.start.p0(i64 1, ptr nonnull %10) #14
  call void @llvm.lifetime.start.p0(i64 1, ptr nonnull %11) #14
  call void @range_deserialize(ptr noundef %0, ptr noundef %1, ptr noundef nonnull %6, ptr noundef nonnull %8, ptr noundef nonnull %10)
  call void @range_deserialize(ptr noundef %0, ptr noundef %2, ptr noundef nonnull %7, ptr noundef nonnull %9, ptr noundef nonnull %11)
  %12 = getelementptr inbounds nuw i8, ptr %6, i64 8
  %13 = load i8, ptr %12, align 8, !range !7, !noundef !8
  %14 = trunc nuw i8 %13 to i1
  %15 = getelementptr inbounds nuw i8, ptr %7, i64 8
  %16 = load i8, ptr %15, align 8, !range !7, !noundef !8
  %17 = trunc nuw i8 %16 to i1
  br i1 %14, label %18, label %29

18:                                               ; preds = %5
  %19 = getelementptr inbounds nuw i8, ptr %6, i64 10
  %20 = load i8, ptr %19, align 2, !range !7, !noundef !8
  br i1 %17, label %21, label %27

21:                                               ; preds = %18
  %22 = getelementptr inbounds nuw i8, ptr %7, i64 10
  %23 = load i8, ptr %22, align 2, !range !7, !noundef !8
  %24 = icmp eq i8 %20, %23
  br i1 %24, label %range_cmp_bounds.exit.thread, label %25

25:                                               ; preds = %21
  %26 = trunc nuw i8 %20 to i1
  br i1 %26, label %range_cmp_bounds.exit.thread20, label %range_cmp_bounds.exit.thread

27:                                               ; preds = %18
  %28 = trunc nuw i8 %20 to i1
  br i1 %28, label %range_cmp_bounds.exit.thread20, label %range_cmp_bounds.exit.thread

29:                                               ; preds = %5
  br i1 %17, label %30, label %34

30:                                               ; preds = %29
  %31 = getelementptr inbounds nuw i8, ptr %7, i64 10
  %32 = load i8, ptr %31, align 2, !range !7, !noundef !8
  %33 = trunc nuw i8 %32 to i1
  br i1 %33, label %range_cmp_bounds.exit.thread, label %range_cmp_bounds.exit.thread20

34:                                               ; preds = %29
  %35 = getelementptr inbounds nuw i8, ptr %0, i64 296
  %36 = getelementptr inbounds nuw i8, ptr %0, i64 292
  %37 = load i32, ptr %36, align 4
  %38 = load i64, ptr %6, align 8
  %39 = load i64, ptr %7, align 8
  %40 = tail call i64 @FunctionCall2Coll(ptr noundef nonnull %35, i32 noundef %37, i64 noundef %38, i64 noundef %39) #14
  %41 = trunc i64 %40 to i32
  %42 = icmp eq i32 %41, 0
  br i1 %42, label %43, label %range_cmp_bounds.exit

43:                                               ; preds = %34
  %44 = getelementptr inbounds nuw i8, ptr %6, i64 9
  %45 = load i8, ptr %44, align 1, !range !7, !noundef !8
  %46 = trunc nuw i8 %45 to i1
  %47 = getelementptr inbounds nuw i8, ptr %7, i64 9
  %48 = load i8, ptr %47, align 1, !range !7, !noundef !8
  %49 = trunc nuw i8 %48 to i1
  br i1 %46, label %61, label %50

50:                                               ; preds = %43
  %51 = getelementptr inbounds nuw i8, ptr %6, i64 10
  %52 = load i8, ptr %51, align 2, !range !7, !noundef !8
  br i1 %49, label %59, label %53

53:                                               ; preds = %50
  %54 = getelementptr inbounds nuw i8, ptr %7, i64 10
  %55 = load i8, ptr %54, align 2, !range !7, !noundef !8
  %56 = icmp eq i8 %52, %55
  br i1 %56, label %range_cmp_bounds.exit.thread, label %57

57:                                               ; preds = %53
  %58 = trunc nuw i8 %52 to i1
  br i1 %58, label %range_cmp_bounds.exit.thread, label %range_cmp_bounds.exit.thread20

59:                                               ; preds = %50
  %60 = trunc nuw i8 %52 to i1
  br i1 %60, label %range_cmp_bounds.exit.thread, label %range_cmp_bounds.exit.thread20

61:                                               ; preds = %43
  br i1 %49, label %range_cmp_bounds.exit.thread, label %62

62:                                               ; preds = %61
  %63 = getelementptr inbounds nuw i8, ptr %7, i64 10
  %64 = load i8, ptr %63, align 2, !range !7, !noundef !8
  %65 = trunc nuw i8 %64 to i1
  br i1 %65, label %range_cmp_bounds.exit.thread20, label %range_cmp_bounds.exit.thread

range_cmp_bounds.exit:                            ; preds = %34
  %66 = icmp slt i32 %41, 0
  br i1 %66, label %range_cmp_bounds.exit.thread20, label %range_cmp_bounds.exit.thread

range_cmp_bounds.exit.thread20:                   ; preds = %62, %27, %25, %57, %59, %30, %range_cmp_bounds.exit
  %67 = getelementptr inbounds nuw i8, ptr %8, i64 8
  %68 = load i8, ptr %67, align 8, !range !7, !noundef !8
  %69 = trunc nuw i8 %68 to i1
  %70 = getelementptr inbounds nuw i8, ptr %9, i64 8
  %71 = load i8, ptr %70, align 8, !range !7, !noundef !8
  %72 = trunc nuw i8 %71 to i1
  br i1 %69, label %73, label %84

73:                                               ; preds = %range_cmp_bounds.exit.thread20
  %74 = getelementptr inbounds nuw i8, ptr %8, i64 10
  %75 = load i8, ptr %74, align 2, !range !7, !noundef !8
  br i1 %72, label %76, label %82

76:                                               ; preds = %73
  %77 = getelementptr inbounds nuw i8, ptr %9, i64 10
  %78 = load i8, ptr %77, align 2, !range !7, !noundef !8
  %79 = icmp eq i8 %75, %78
  br i1 %79, label %range_cmp_bounds.exit.thread, label %80

80:                                               ; preds = %76
  %81 = trunc nuw i8 %75 to i1
  br i1 %81, label %range_cmp_bounds.exit.thread, label %range_cmp_bounds.exit12.thread30

82:                                               ; preds = %73
  %83 = trunc nuw i8 %75 to i1
  br i1 %83, label %range_cmp_bounds.exit.thread, label %range_cmp_bounds.exit12.thread30

84:                                               ; preds = %range_cmp_bounds.exit.thread20
  br i1 %72, label %85, label %89

85:                                               ; preds = %84
  %86 = getelementptr inbounds nuw i8, ptr %9, i64 10
  %87 = load i8, ptr %86, align 2, !range !7, !noundef !8
  %88 = trunc nuw i8 %87 to i1
  br i1 %88, label %range_cmp_bounds.exit12.thread30, label %range_cmp_bounds.exit.thread

89:                                               ; preds = %84
  %90 = getelementptr inbounds nuw i8, ptr %0, i64 296
  %91 = getelementptr inbounds nuw i8, ptr %0, i64 292
  %92 = load i32, ptr %91, align 4
  %93 = load i64, ptr %8, align 8
  %94 = load i64, ptr %9, align 8
  %95 = tail call i64 @FunctionCall2Coll(ptr noundef nonnull %90, i32 noundef %92, i64 noundef %93, i64 noundef %94) #14
  %96 = trunc i64 %95 to i32
  %97 = icmp eq i32 %96, 0
  br i1 %97, label %98, label %range_cmp_bounds.exit12

98:                                               ; preds = %89
  %99 = getelementptr inbounds nuw i8, ptr %8, i64 9
  %100 = load i8, ptr %99, align 1, !range !7, !noundef !8
  %101 = trunc nuw i8 %100 to i1
  %102 = getelementptr inbounds nuw i8, ptr %9, i64 9
  %103 = load i8, ptr %102, align 1, !range !7, !noundef !8
  %104 = trunc nuw i8 %103 to i1
  br i1 %101, label %116, label %105

105:                                              ; preds = %98
  %106 = getelementptr inbounds nuw i8, ptr %8, i64 10
  %107 = load i8, ptr %106, align 2, !range !7, !noundef !8
  br i1 %104, label %114, label %108

108:                                              ; preds = %105
  %109 = getelementptr inbounds nuw i8, ptr %9, i64 10
  %110 = load i8, ptr %109, align 2, !range !7, !noundef !8
  %111 = icmp eq i8 %107, %110
  br i1 %111, label %range_cmp_bounds.exit.thread, label %112

112:                                              ; preds = %108
  %113 = trunc nuw i8 %107 to i1
  br i1 %113, label %range_cmp_bounds.exit12.thread30, label %range_cmp_bounds.exit.thread

114:                                              ; preds = %105
  %115 = trunc nuw i8 %107 to i1
  br i1 %115, label %range_cmp_bounds.exit12.thread30, label %range_cmp_bounds.exit.thread

116:                                              ; preds = %98
  br i1 %104, label %range_cmp_bounds.exit.thread, label %117

117:                                              ; preds = %116
  %118 = getelementptr inbounds nuw i8, ptr %9, i64 10
  %119 = load i8, ptr %118, align 2, !range !7, !noundef !8
  %120 = trunc nuw i8 %119 to i1
  br i1 %120, label %range_cmp_bounds.exit.thread, label %range_cmp_bounds.exit12.thread30

range_cmp_bounds.exit12:                          ; preds = %89
  %121 = icmp sgt i32 %96, 0
  br i1 %121, label %range_cmp_bounds.exit12.thread30, label %range_cmp_bounds.exit.thread

range_cmp_bounds.exit12.thread30:                 ; preds = %112, %114, %85, %117, %82, %80, %range_cmp_bounds.exit12
  %122 = getelementptr inbounds nuw i8, ptr %7, i64 9
  %123 = load i8, ptr %122, align 1, !range !7, !noundef !8
  %124 = xor i8 %123, 1
  store i8 %124, ptr %122, align 1
  %125 = getelementptr inbounds nuw i8, ptr %7, i64 10
  store i8 0, ptr %125, align 2
  %126 = getelementptr inbounds nuw i8, ptr %9, i64 9
  %127 = load i8, ptr %126, align 1, !range !7, !noundef !8
  %128 = xor i8 %127, 1
  store i8 %128, ptr %126, align 1
  %129 = getelementptr inbounds nuw i8, ptr %9, i64 10
  store i8 1, ptr %129, align 2
  %130 = call ptr @make_range(ptr noundef %0, ptr noundef nonnull %6, ptr noundef nonnull %7, i1 noundef zeroext false, ptr noundef null)
  store ptr %130, ptr %3, align 8
  %131 = call ptr @make_range(ptr noundef %0, ptr noundef nonnull %9, ptr noundef nonnull %8, i1 noundef zeroext false, ptr noundef null)
  store ptr %131, ptr %4, align 8
  br label %range_cmp_bounds.exit.thread

range_cmp_bounds.exit.thread:                     ; preds = %117, %82, %80, %116, %108, %76, %112, %114, %85, %57, %59, %30, %61, %53, %21, %62, %27, %25, %range_cmp_bounds.exit, %range_cmp_bounds.exit12, %range_cmp_bounds.exit12.thread30
  %.0 = phi i1 [ true, %range_cmp_bounds.exit12.thread30 ], [ false, %range_cmp_bounds.exit12 ], [ false, %range_cmp_bounds.exit ], [ false, %25 ], [ false, %27 ], [ false, %62 ], [ false, %21 ], [ false, %53 ], [ false, %61 ], [ false, %30 ], [ false, %59 ], [ false, %57 ], [ false, %85 ], [ false, %114 ], [ false, %112 ], [ false, %76 ], [ false, %108 ], [ false, %116 ], [ false, %80 ], [ false, %82 ], [ false, %117 ]
  call void @llvm.lifetime.end.p0(i64 1, ptr nonnull %11) #14
  call void @llvm.lifetime.end.p0(i64 1, ptr nonnull %10) #14
  call void @llvm.lifetime.end.p0(i64 16, ptr nonnull %9) #14
  call void @llvm.lifetime.end.p0(i64 16, ptr nonnull %8) #14
  call void @llvm.lifetime.end.p0(i64 16, ptr nonnull %7) #14
  call void @llvm.lifetime.end.p0(i64 16, ptr nonnull %6) #14
  ret i1 %.0
}